; Function Attrs: mustprogress nounwind uwtable
define dso_local void @_ZN5clang11FileManager14clearStatCacheEv(ptr nocapture noundef nonnull align 8 dereferenceable(808) %0) local_unnamed_addr #0 align 2 {
  %2 = getelementptr inbounds nuw i8, ptr %0, i64 800
  %3 = load ptr, ptr %2, align 8
  store ptr null, ptr %2, align 8
  %.not.i.i = icmp eq ptr %3, null
  br i1 %.not.i.i, label %_ZNSt10unique_ptrIN5clang19FileSystemStatCacheESt14default_deleteIS1_EE5resetEPS1_.exit, label %_ZNKSt14default_deleteIN5clang19FileSystemStatCacheEEclEPS1_.exit.i.i

_ZNKSt14default_deleteIN5clang19FileSystemStatCacheEEclEPS1_.exit.i.i: ; preds = %1
  %4 = load ptr, ptr %3, align 8
  %5 = getelementptr inbounds i8, ptr %4, i64 16
  %6 = load ptr, ptr %5, align 8
  tail call void %6(ptr noundef nonnull align 8 dereferenceable(8) %3) #17
  br label %_ZNSt10unique_ptrIN5clang19FileSystemStatCacheESt14default_deleteIS1_EE5resetEPS1_.exit

_ZNSt10unique_ptrIN5clang19FileSystemStatCacheESt14default_deleteIS1_EE5resetEPS1_.exit: ; preds = %1, %_ZNKSt14default_deleteIN5clang19FileSystemStatCacheEEclEPS1_.exit.i.i
  ret void
}